target datalayout = "e-m:e-p270:32:32-p271:32:32-p272:64:64-i64:64-i128:128-f80:128-n8:16:32:64-S128"
target triple = "x86_64-pc-linux-gnu"

@.str.372 = private unnamed_addr constant [2 x i8] c"O\00", align 1

; Function Attrs: nounwind uwtable
define internal ptr @unicode_aswidecharstring_null(ptr noundef %0, ptr noundef %1) #0 {
  %3 = alloca ptr, align 8
  %4 = alloca ptr, align 8
  %5 = alloca ptr, align 8
  %6 = alloca ptr, align 8
  %7 = alloca ptr, align 8
  %8 = alloca ptr, align 8
  %9 = alloca i32, align 4
  store ptr %0, ptr %4, align 8, !tbaa !3
  store ptr %1, ptr %5, align 8, !tbaa !3
  call void @llvm.lifetime.start.p0(i64 8, ptr %6) #7
  call void @llvm.lifetime.start.p0(i64 8, ptr %7) #7
  call void @llvm.lifetime.start.p0(i64 8, ptr %8) #7
  %10 = load ptr, ptr %5, align 8, !tbaa !3
  %11 = call i32 (ptr, ptr, ...) @PyArg_ParseTuple(ptr noundef %10, ptr noundef @.str.372, ptr noundef %6)
  %12 = icmp ne i32 %11, 0
  br i1 %12, label %14, label %13

13:                                               ; preds = %2
  store ptr null, ptr %3, align 8
  store i32 1, ptr %9, align 4
  br label %37

14:                                               ; preds = %2
  br label %15

15:                                               ; preds = %14
  %16 = load ptr, ptr %6, align 8, !tbaa !3
  %17 = call ptr @Py_GetConstantBorrowed(i32 noundef 0)
  %18 = icmp eq ptr %16, %17
  br i1 %18, label %19, label %20

19:                                               ; preds = %15
  store ptr null, ptr %6, align 8, !tbaa !3
  br label %20

20:                                               ; preds = %19, %15
  br label %21

21:                                               ; preds = %20
  br label %22

22:                                               ; preds = %21
  %23 = load ptr, ptr %6, align 8, !tbaa !3
  %24 = call ptr @PyUnicode_AsWideCharString(ptr noundef %23, ptr noundef null)
  store ptr %24, ptr %8, align 8, !tbaa !14
  %25 = load ptr, ptr %8, align 8, !tbaa !14
  %26 = icmp eq ptr %25, null
  br i1 %26, label %27, label %28

27:                                               ; preds = %22
  store ptr null, ptr %3, align 8
  store i32 1, ptr %9, align 4
  br label %37

28:                                               ; preds = %22
  %29 = load ptr, ptr %8, align 8, !tbaa !14
  %30 = call ptr @PyUnicode_FromWideChar(ptr noundef %29, i64 noundef -1)
  store ptr %30, ptr %7, align 8, !tbaa !3
  %31 = load ptr, ptr %8, align 8, !tbaa !14
  call void @PyMem_Free(ptr noundef %31)
  %32 = load ptr, ptr %7, align 8, !tbaa !3
  %33 = icmp eq ptr %32, null
  br i1 %33, label %34, label %35

34:                                               ; preds = %28
  store ptr null, ptr %3, align 8
  store i32 1, ptr %9, align 4
  br label %37

35:                                               ; preds = %28
  %36 = load ptr, ptr %7, align 8, !tbaa !3
  store ptr %36, ptr %3, align 8
  store i32 1, ptr %9, align 4
  br label %37

37:                                               ; preds = %35, %34, %27, %13
  call void @llvm.lifetime.end.p0(i64 8, ptr %8) #7
  call void @llvm.lifetime.end.p0(i64 8, ptr %7) #7
  call void @llvm.lifetime.end.p0(i64 8, ptr %6) #7
  %38 = load ptr, ptr %3, align 8
  ret ptr %38
}