; Function Attrs: nounwind uwtable
define internal ptr @unicode_aswidecharstring_null(ptr readnone captures(none) %0, ptr noundef %1) #0 {
  %3 = alloca ptr, align 8
  call void @llvm.lifetime.start.p0(i64 8, ptr nonnull %3) #4
  %4 = call i32 (ptr, ptr, ...) @PyArg_ParseTuple(ptr noundef %1, ptr noundef nonnull @.str.372, ptr noundef nonnull %3) #4
  %.not = icmp eq i32 %4, 0
  br i1 %.not, label %16, label %5

5:                                                ; preds = %2
  %6 = load ptr, ptr %3, align 8, !tbaa !8
  %7 = call ptr @Py_GetConstantBorrowed(i32 noundef 0) #4
  %8 = icmp eq ptr %6, %7
  br i1 %8, label %9, label %._crit_edge

._crit_edge:                                      ; preds = %5
  %.pre = load ptr, ptr %3, align 8, !tbaa !8
  br label %10

9:                                                ; preds = %5
  store ptr null, ptr %3, align 8, !tbaa !8
  br label %10

10:                                               ; preds = %._crit_edge, %9
  %11 = phi ptr [ %.pre, %._crit_edge ], [ null, %9 ]
  %12 = call ptr @PyUnicode_AsWideCharString(ptr noundef %11, ptr noundef null) #4
  %13 = icmp eq ptr %12, null
  br i1 %13, label %16, label %14

14:                                               ; preds = %10
  %15 = call ptr @PyUnicode_FromWideChar(ptr noundef nonnull %12, i64 noundef -1) #4
  call void @PyMem_Free(ptr noundef nonnull %12) #4
  br label %16

16:                                               ; preds = %14, %10, %2
  %.0 = phi ptr [ null, %2 ], [ null, %10 ], [ %15, %14 ]
  call void @llvm.lifetime.end.p0(i64 8, ptr nonnull %3) #4
  ret ptr %.0
}